; Function Attrs: mustprogress uwtable
define hidden void @_ZNK2cv6detail8tracking15contrib_feature19CvHaarFeatureParams13printDefaultsEv(ptr noundef nonnull readonly align 8 captures(none) dereferenceable(53) %0) unnamed_addr #5 align 2 {
  tail call void @_ZNK2cv6detail8tracking15contrib_feature8CvParams13printDefaultsEv(ptr noundef nonnull align 8 dereferenceable(40) %0)
  %2 = tail call noundef nonnull align 8 dereferenceable(8) ptr @_ZSt16__ostream_insertIcSt11char_traitsIcEERSt13basic_ostreamIT_T0_ES6_PKS3_l(ptr noundef nonnull align 8 dereferenceable(8) @_ZSt4cout, ptr noundef nonnull @.str.12, i64 noundef 17)
  %3 = load ptr, ptr @_ZSt4cout, align 8, !tbaa !3
  %4 = getelementptr i8, ptr %3, i64 -24
  %5 = load i64, ptr %4, align 8
  %6 = getelementptr inbounds i8, ptr @_ZSt4cout, i64 %5
  %7 = getelementptr inbounds nuw i8, ptr %6, i64 240
  %8 = load ptr, ptr %7, align 8, !tbaa !16
  %.not.i.i.i = icmp eq ptr %8, null
  br i1 %.not.i.i.i, label %9, label %_ZSt13__check_facetISt5ctypeIcEERKT_PS3_.exit.i.i

9:                                                ; preds = %1
  tail call void @_ZSt16__throw_bad_castv() #29
  unreachable

_ZSt13__check_facetISt5ctypeIcEERKT_PS3_.exit.i.i: ; preds = %1
  %10 = getelementptr inbounds nuw i8, ptr %8, i64 56
  %11 = load i8, ptr %10, align 8, !tbaa !33
  %.not.i1.i.i = icmp eq i8 %11, 0
  br i1 %.not.i1.i.i, label %15, label %12

12:                                               ; preds = %_ZSt13__check_facetISt5ctypeIcEERKT_PS3_.exit.i.i
  %13 = getelementptr inbounds nuw i8, ptr %8, i64 67
  %14 = load i8, ptr %13, align 1, !tbaa !14
  br label %_ZSt4endlIcSt11char_traitsIcEERSt13basic_ostreamIT_T0_ES6_.exit

15:                                               ; preds = %_ZSt13__check_facetISt5ctypeIcEERKT_PS3_.exit.i.i
  tail call void @_ZNKSt5ctypeIcE13_M_widen_initEv(ptr noundef nonnull align 8 dereferenceable(570) %8)
  %16 = load ptr, ptr %8, align 8, !tbaa !3
  %17 = getelementptr inbounds nuw i8, ptr %16, i64 48
  %18 = load ptr, ptr %17, align 8
  %19 = tail call noundef signext i8 %18(ptr noundef nonnull align 8 dereferenceable(570) %8, i8 noundef signext 10)
  br label %_ZSt4endlIcSt11char_traitsIcEERSt13basic_ostreamIT_T0_ES6_.exit

_ZSt4endlIcSt11char_traitsIcEERSt13basic_ostreamIT_T0_ES6_.exit: ; preds = %12, %15
  %.0.i.i.i = phi i8 [ %14, %12 ], [ %19, %15 ]
  %20 = tail call noundef nonnull align 8 dereferenceable(8) ptr @_ZNSo3putEc(ptr noundef nonnull align 8 dereferenceable(8) @_ZSt4cout, i8 noundef signext %.0.i.i.i)
  %21 = tail call noundef nonnull align 8 dereferenceable(8) ptr @_ZNSo5flushEv(ptr noundef nonnull align 8 dereferenceable(8) %20)
  ret void
}